target datalayout = "e-m:e-p270:32:32-p271:32:32-p272:64:64-i64:64-i128:128-f80:128-n8:16:32:64-S128"
target triple = "x86_64-unknown-linux-gnu"

%union.anon.0 = type { %struct.QTailQLink }
%struct.QTailQLink = type { ptr, ptr }
%struct.QemuInputHandlerState = type { ptr, ptr, i32, i32, ptr, %union.anon }
%union.anon = type { %struct.QTailQLink }
%struct.QemuInputHandler = type { ptr, i32, ptr, ptr }
%struct.MouseInfo = type { ptr, i64, i8, i8 }
%struct.MouseInfoList = type { ptr, ptr }

@handlers = internal global %union.anon.0 { %struct.QTailQLink { ptr null, ptr @handlers } }, align 8

; Function Attrs: nounwind sspstrong uwtable
define dso_local ptr @qmp_query_mice(ptr noundef %errp) #0 {
entry:
  %errp.addr = alloca ptr, align 8
  %mice_list = alloca ptr, align 8
  %info = alloca ptr, align 8
  %s = alloca ptr, align 8
  %current = alloca i8, align 1
  %_tmp = alloca ptr, align 8
  store ptr %errp, ptr %errp.addr, align 8
  store ptr null, ptr %mice_list, align 8
  store i8 1, ptr %current, align 1
  %0 = load ptr, ptr @handlers, align 8
  store ptr %0, ptr %s, align 8
  br label %for.cond

for.cond:                                         ; preds = %for.inc, %entry
  %1 = load ptr, ptr %s, align 8
  %tobool = icmp ne ptr %1, null
  br i1 %tobool, label %for.body, label %for.end

for.body:                                         ; preds = %for.cond
  %2 = load ptr, ptr %s, align 8
  %handler = getelementptr inbounds %struct.QemuInputHandlerState, ptr %2, i32 0, i32 1
  %3 = load ptr, ptr %handler, align 8
  %mask = getelementptr inbounds %struct.QemuInputHandler, ptr %3, i32 0, i32 1
  %4 = load i32, ptr %mask, align 8
  %and = and i32 %4, 12
  %tobool1 = icmp ne i32 %and, 0
  br i1 %tobool1, label %if.end, label %if.then

if.then:                                          ; preds = %for.body
  br label %for.inc

if.end:                                           ; preds = %for.body
  %call = call noalias ptr @g_malloc0_n(i64 noundef 1, i64 noundef 24) #7
  store ptr %call, ptr %info, align 8
  %5 = load ptr, ptr %s, align 8
  %id = getelementptr inbounds %struct.QemuInputHandlerState, ptr %5, i32 0, i32 2
  %6 = load i32, ptr %id, align 8
  %conv = sext i32 %6 to i64
  %7 = load ptr, ptr %info, align 8
  %index = getelementptr inbounds %struct.MouseInfo, ptr %7, i32 0, i32 1
  store i64 %conv, ptr %index, align 8
  %8 = load ptr, ptr %s, align 8
  %handler2 = getelementptr inbounds %struct.QemuInputHandlerState, ptr %8, i32 0, i32 1
  %9 = load ptr, ptr %handler2, align 8
  %name = getelementptr inbounds %struct.QemuInputHandler, ptr %9, i32 0, i32 0
  %10 = load ptr, ptr %name, align 8
  %call3 = call noalias ptr @g_strdup(ptr noundef %10)
  %11 = load ptr, ptr %info, align 8
  %name4 = getelementptr inbounds %struct.MouseInfo, ptr %11, i32 0, i32 0
  store ptr %call3, ptr %name4, align 8
  %12 = load ptr, ptr %s, align 8
  %handler5 = getelementptr inbounds %struct.QemuInputHandlerState, ptr %12, i32 0, i32 1
  %13 = load ptr, ptr %handler5, align 8
  %mask6 = getelementptr inbounds %struct.QemuInputHandler, ptr %13, i32 0, i32 1
  %14 = load i32, ptr %mask6, align 8
  %and7 = and i32 %14, 8
  %tobool8 = icmp ne i32 %and7, 0
  %15 = load ptr, ptr %info, align 8
  %absolute = getelementptr inbounds %struct.MouseInfo, ptr %15, i32 0, i32 3
  %frombool = zext i1 %tobool8 to i8
  store i8 %frombool, ptr %absolute, align 1
  %16 = load i8, ptr %current, align 1
  %tobool9 = trunc i8 %16 to i1
  %17 = load ptr, ptr %info, align 8
  %current10 = getelementptr inbounds %struct.MouseInfo, ptr %17, i32 0, i32 2
  %frombool11 = zext i1 %tobool9 to i8
  store i8 %frombool11, ptr %current10, align 8
  store i8 0, ptr %current, align 1
  br label %do.body

do.body:                                          ; preds = %if.end
  %call12 = call noalias ptr @g_malloc(i64 noundef 16) #10
  store ptr %call12, ptr %_tmp, align 8
  %18 = load ptr, ptr %info, align 8
  %19 = load ptr, ptr %_tmp, align 8
  %value = getelementptr inbounds %struct.MouseInfoList, ptr %19, i32 0, i32 1
  store ptr %18, ptr %value, align 8
  %20 = load ptr, ptr %mice_list, align 8
  %21 = load ptr, ptr %_tmp, align 8
  %next = getelementptr inbounds %struct.MouseInfoList, ptr %21, i32 0, i32 0
  store ptr %20, ptr %next, align 8
  %22 = load ptr, ptr %_tmp, align 8
  store ptr %22, ptr %mice_list, align 8
  br label %do.end

do.end:                                           ; preds = %do.body
  br label %for.inc

for.inc:                                          ; preds = %do.end, %if.then
  %23 = load ptr, ptr %s, align 8
  %node = getelementptr inbounds %struct.QemuInputHandlerState, ptr %23, i32 0, i32 5
  %24 = load ptr, ptr %node, align 8
  store ptr %24, ptr %s, align 8
  br label %for.cond, !llvm.loop !13

for.end:                                          ; preds = %for.cond
  %25 = load ptr, ptr %mice_list, align 8
  ret ptr %25
}