; Function Attrs: nounwind sspstrong uwtable
define dso_local ptr @qmp_query_mice(ptr noundef readnone captures(none) %errp) local_unnamed_addr #0 {
entry:
  %s.013 = load ptr, ptr @handlers, align 8
  %tobool.not14 = icmp eq ptr %s.013, null
  br i1 %tobool.not14, label %for.end, label %for.body

for.body:                                         ; preds = %entry, %for.inc
  %s.017 = phi ptr [ %s.0, %for.inc ], [ %s.013, %entry ]
  %mice_list.016 = phi ptr [ %mice_list.1, %for.inc ], [ null, %entry ]
  %current.015 = phi i8 [ %current.1, %for.inc ], [ 1, %entry ]
  %handler = getelementptr inbounds nuw i8, ptr %s.017, i64 8
  %0 = load ptr, ptr %handler, align 8
  %mask = getelementptr inbounds nuw i8, ptr %0, i64 8
  %1 = load i32, ptr %mask, align 8
  %and = and i32 %1, 12
  %tobool1.not = icmp eq i32 %and, 0
  br i1 %tobool1.not, label %for.inc, label %if.end

if.end:                                           ; preds = %for.body
  %call = tail call noalias dereferenceable_or_null(24) ptr @g_malloc0_n(i64 noundef 1, i64 noundef 24) #11
  %id = getelementptr inbounds nuw i8, ptr %s.017, i64 16
  %2 = load i32, ptr %id, align 8
  %conv = sext i32 %2 to i64
  %index = getelementptr inbounds nuw i8, ptr %call, i64 8
  store i64 %conv, ptr %index, align 8
  %3 = load ptr, ptr %handler, align 8
  %4 = load ptr, ptr %3, align 8
  %call3 = tail call noalias ptr @g_strdup(ptr noundef %4) #12
  store ptr %call3, ptr %call, align 8
  %5 = load ptr, ptr %handler, align 8
  %mask6 = getelementptr inbounds nuw i8, ptr %5, i64 8
  %6 = load i32, ptr %mask6, align 8
  %absolute = getelementptr inbounds nuw i8, ptr %call, i64 17
  %7 = trunc i32 %6 to i8
  %8 = lshr i8 %7, 3
  %frombool = and i8 %8, 1
  store i8 %frombool, ptr %absolute, align 1
  %current10 = getelementptr inbounds nuw i8, ptr %call, i64 16
  store i8 %current.015, ptr %current10, align 8
  %call12 = tail call noalias dereferenceable_or_null(16) ptr @g_malloc(i64 noundef 16) #14
  %value = getelementptr inbounds nuw i8, ptr %call12, i64 8
  store ptr %call, ptr %value, align 8
  store ptr %mice_list.016, ptr %call12, align 8
  br label %for.inc

for.inc:                                          ; preds = %for.body, %if.end
  %current.1 = phi i8 [ 0, %if.end ], [ %current.015, %for.body ]
  %mice_list.1 = phi ptr [ %call12, %if.end ], [ %mice_list.016, %for.body ]
  %node = getelementptr inbounds nuw i8, ptr %s.017, i64 32
  %s.0 = load ptr, ptr %node, align 8
  %tobool.not = icmp eq ptr %s.0, null
  br i1 %tobool.not, label %for.end, label %for.body, !llvm.loop !13

for.end:                                          ; preds = %for.inc, %entry
  %mice_list.0.lcssa = phi ptr [ null, %entry ], [ %mice_list.1, %for.inc ]
  ret ptr %mice_list.0.lcssa
}